; Function Attrs: nounwind uwtable
define dso_local ptr @find_http_header(ptr noundef %0, ptr noundef %1) local_unnamed_addr #0 {
  %3 = icmp ne ptr %0, null
  %4 = icmp ne ptr %1, null
  %or.cond = and i1 %3, %4
  br i1 %or.cond, label %5, label %10

5:                                                ; preds = %2
  %6 = tail call ptr @list_find_first(ptr noundef nonnull %0, ptr noundef nonnull @_http_header_find_key, ptr noundef nonnull %1) #8
  %.not = icmp eq ptr %6, null
  br i1 %.not, label %10, label %7

7:                                                ; preds = %5
  %8 = getelementptr inbounds nuw i8, ptr %6, i64 8
  %9 = load ptr, ptr %8, align 8
  br label %10

10:                                               ; preds = %5, %2, %7
  %.0 = phi ptr [ %9, %7 ], [ null, %2 ], [ null, %5 ]
  ret ptr %.0
}